Certificate:
    Data:
        Version: 3 (0x2)
        Serial Number: 5 (0x5)
        Signature Algorithm: sha1WithRSAEncryption
        Issuer: C=RU, ST=RUSSIA, L=Moscow, O=Kinopoisk, OU=OnLine, CN=root
        Validity
            Not Before: Apr  6 10:09:00 2012 GMT
            Not After : Apr  4 10:09:00 2022 GMT
        Subject: C=RU, ST=RUSSIA, O=Kinopoisk, OU=OnLine, CN=bo.kinopoisk.ru
        Subject Public Key Info:
            Public Key Algorithm: rsaEncryption
                Public-Key: (1024 bit)
                Modulus:
                    00:fa:eb:af:11:f9:cb:1d:bd:43:9d:1a:1d:67:5f:
                    ed:62:5e:33:20:49:83:c6:1a:be:67:11:78:f1:fd:
                    ef:c2:a0:55:81:09:7b:36:80:80:99:f1:c2:6d:b2:
                    af:aa:91:e1:ee:a8:1f:19:4c:f0:8d:53:2c:a3:53:
                    0a:48:57:d5:12:09:41:8d:6b:ea:89:f0:c4:98:f0:
                    a3:66:3e:f9:1d:ab:74:61:98:e4:dc:3d:be:9d:37:
                    6c:03:7a:bd:16:32:f9:85:e1:15:f0:44:8f:9a:a7:
                    a9:45:9c:bc:9d:b0:86:76:e7:bc:1d:52:ab:83:25:
                    fd:e8:28:a1:48:89:34:6a:95
                Exponent: 65537 (0x10001)
        X509v3 extensions:
            X509v3 Basic Constraints: 
                CA:FALSE
            Netscape Comment: 
                OpenSSL Generated Certificate
            X509v3 Subject Key Identifier: 
                41:59:48:1C:C0:AE:EB:1D:CD:7C:0B:BC:8D:97:E2:32:65:FC:14:CB
            X509v3 Authority Key Identifier: 
                keyid:67:38:FF:40:20:65:21:24:26:5C:E3:96:C3:1D:6C:0C:A4:A2:7B:07
                DirName:/C=RU/ST=RUSSIA/L=Moscow/O=Kinopoisk/OU=OnLine/CN=root
                serial:91:D1:3E:77:E9:28:66:40

    Signature Algorithm: sha1WithRSAEncryption
        37:35:60:42:f7:62:71:a9:56:52:27:f7:b8:2b:03:80:9a:e5:
        bd:b4:a9:71:cb:0d:11:5a:b3:a0:7d:7e:36:6e:7f:84:ed:31:
        9b:81:ca:c2:1c:0a:6b:4c:20:2a:bb:2b:06:d5:39:64:62:4c:
        74:9a:ae:31:e5:1d:00:f4:3f:11:aa:a2:6d:6e:c2:56:fb:cd:
        bc:bc:4e:d5:87:5b:e7:41:3b:c0:6a:34:6b:09:14:a1:61:d1:
        2a:3d:71:6e:e5:4a:29:a0:e7:21:9f:35:66:02:67:2b:0d:b6:
        34:c7:71:bd:24:45:1f:59:79:6d:7c:a7:31:c5:20:9f:fd:65:
        b4:9d
-----BEGIN CERTIFICATE-----
MIIDKjCCApOgAwIBAgIBBTANBgkqhkiG9w0BAQUFADBjMQswCQYDVQQGEwJSVTEP
MA0GA1UECAwGUlVTU0lBMQ8wDQYDVQQHDAZNb3Njb3cxEjAQBgNVBAoMCUtpbm9w
b2lzazEPMA0GA1UECwwGT25MaW5lMQ0wCwYDVQQDDARyb290MB4XDTEyMDQwNjEw
MDkwMFoXDTIyMDQwNDEwMDkwMFowXTELMAkGA1UEBhMCUlUxDzANBgNVBAgMBlJV
U1NJQTESMBAGA1UECgwJS2lub3BvaXNrMQ8wDQYDVQQLDAZPbkxpbmUxGDAWBgNV
BAMMD2JvLmtpbm9wb2lzay5ydTCBnzANBgkqhkiG9w0BAQEFAAOBjQAwgYkCgYEA
+uuvEfnLHb1DnRodZ1/tYl4zIEmDxhq+ZxF48f3vwqBVgQl7NoCAmfHCbbKvqpHh
7qgfGUzwjVMso1MKSFfVEglBjWvqifDEmPCjZj75Hat0YZjk3D2+nTdsA3q9FjL5
heEV8ESPmqepRZy8nbCGdue8HVKrgyX96CihSIk0apUCAwEAAaOB8zCB8DAJBgNV
HRMEAjAAMCwGCWCGSAGG+EIBDQQfFh1PcGVuU1NMIEdlbmVyYXRlZCBDZXJ0aWZp
Y2F0ZTAdBgNVHQ4EFgQUQVlIHMCu6x3NfAu8jZfiMmX8FMswgZUGA1UdIwSBjTCB
ioAUZzj/QCBlISQmXOOWwx1sDKSiewehZ6RlMGMxCzAJBgNVBAYTAlJVMQ8wDQYD
VQQIDAZSVVNTSUExDzANBgNVBAcMBk1vc2NvdzESMBAGA1UECgwJS2lub3BvaXNr
MQ8wDQYDVQQLDAZPbkxpbmUxDTALBgNVBAMMBHJvb3SCCQCR0T536ShmQDANBgkq
hkiG9w0BAQUFAAOBgQA3NWBC92JxqVZSJ/e4KwOAmuW9tKlxyw0RWrOgfX42bn+E
7TGbgcrCHAprTCAquysG1TlkYkx0mq4x5R0A9D8RqqJtbsJW+828vE7Vh1vnQTvA
ajRrCRShYdEqPXFu5UopoOchnzVmAmcrDbY0x3G9JEUfWXltfKcxxSCf/WW0nQ==
-----END CERTIFICATE-----
